target datalayout = "e-m:e-p270:32:32-p271:32:32-p272:64:64-i64:64-i128:128-f80:128-n8:16:32:64-S128"
target triple = "x86_64-pc-linux-gnu"

; Function Attrs: nounwind uwtable
define internal void @iblend_vline16(ptr noundef %0, i32 noundef %1, i32 noundef %2, float noundef %3, float noundef %4, i32 noundef %5, i32 noundef %6) #1 {
  %8 = alloca ptr, align 8
  %9 = alloca i32, align 4
  %10 = alloca i32, align 4
  %11 = alloca float, align 4
  %12 = alloca float, align 4
  %13 = alloca i32, align 4
  %14 = alloca i32, align 4
  %15 = alloca ptr, align 8
  %16 = alloca i32, align 4
  store ptr %0, ptr %8, align 8, !tbaa !77
  store i32 %1, ptr %9, align 4, !tbaa !47
  store i32 %2, ptr %10, align 4, !tbaa !47
  store float %3, ptr %11, align 4, !tbaa !69
  store float %4, ptr %12, align 4, !tbaa !69
  store i32 %5, ptr %13, align 4, !tbaa !47
  store i32 %6, ptr %14, align 4, !tbaa !47
  call void @llvm.lifetime.start.p0(i64 8, ptr %15) #10
  %17 = load ptr, ptr %8, align 8, !tbaa !77
  store ptr %17, ptr %15, align 8, !tbaa !79
  call void @llvm.lifetime.start.p0(i64 4, ptr %16) #10
  store i32 0, ptr %16, align 4, !tbaa !47
  br label %18

18:                                               ; preds = %49, %7
  %19 = load i32, ptr %16, align 4, !tbaa !47
  %20 = load i32, ptr %9, align 4, !tbaa !47
  %21 = icmp slt i32 %19, %20
  br i1 %21, label %22, label %53

22:                                               ; preds = %18
  %23 = load i32, ptr %13, align 4, !tbaa !47
  %24 = load ptr, ptr %15, align 8, !tbaa !79
  %25 = getelementptr inbounds i16, ptr %24, i64 0
  %26 = load i16, ptr %25, align 2, !tbaa !81
  %27 = zext i16 %26 to i32
  %28 = sub nsw i32 %23, %27
  %29 = sitofp i32 %28 to float
  %30 = load float, ptr %11, align 4, !tbaa !69
  %31 = load ptr, ptr %15, align 8, !tbaa !79
  %32 = getelementptr inbounds i16, ptr %31, i64 0
  %33 = load i16, ptr %32, align 2, !tbaa !81
  %34 = zext i16 %33 to i32
  %35 = sitofp i32 %34 to float
  %36 = load float, ptr %12, align 4, !tbaa !69
  %37 = fmul nsz float %35, %36
  %38 = call nsz float @llvm.fmuladd.f32(float %29, float %30, float %37)
  %39 = fptoui float %38 to i16
  %40 = load ptr, ptr %15, align 8, !tbaa !79
  %41 = getelementptr inbounds i16, ptr %40, i64 0
  store i16 %39, ptr %41, align 2, !tbaa !81
  %42 = load i32, ptr %10, align 4, !tbaa !47
  %43 = sdiv i32 %42, 2
  %44 = load i32, ptr %14, align 4, !tbaa !47
  %45 = mul nsw i32 %43, %44
  %46 = load ptr, ptr %15, align 8, !tbaa !79
  %47 = sext i32 %45 to i64
  %48 = getelementptr inbounds i16, ptr %46, i64 %47
  store ptr %48, ptr %15, align 8, !tbaa !79
  br label %49

49:                                               ; preds = %22
  %50 = load i32, ptr %14, align 4, !tbaa !47
  %51 = load i32, ptr %16, align 4, !tbaa !47
  %52 = add nsw i32 %51, %50
  store i32 %52, ptr %16, align 4, !tbaa !47
  br label %18, !llvm.loop !221

53:                                               ; preds = %18
  call void @llvm.lifetime.end.p0(i64 4, ptr %16) #10
  call void @llvm.lifetime.end.p0(i64 8, ptr %15) #10
  ret void
}