; Function Attrs: nofree norecurse nosync nounwind memory(argmem: readwrite) uwtable
define internal void @iblend_vline16(ptr noundef captures(none) %0, i32 noundef %1, i32 noundef %2, float noundef %3, float noundef %4, i32 noundef %5, i32 noundef %6) #8 {
  %8 = icmp sgt i32 %1, 0
  br i1 %8, label %.lr.ph, label %._crit_edge

.lr.ph:                                           ; preds = %7
  %9 = sdiv i32 %2, 2
  %10 = mul nsw i32 %6, %9
  %11 = sext i32 %10 to i64
  br label %12

12:                                               ; preds = %.lr.ph, %12
  %.015 = phi i32 [ 0, %.lr.ph ], [ %22, %12 ]
  %.01314 = phi ptr [ %0, %.lr.ph ], [ %21, %12 ]
  %13 = load i16, ptr %.01314, align 2, !tbaa !72
  %14 = zext i16 %13 to i32
  %15 = sub nsw i32 %5, %14
  %16 = sitofp i32 %15 to float
  %17 = uitofp i16 %13 to float
  %18 = fmul nsz float %4, %17
  %19 = tail call nsz float @llvm.fmuladd.f32(float %16, float %3, float %18)
  %20 = fptoui float %19 to i16
  store i16 %20, ptr %.01314, align 2, !tbaa !72
  %21 = getelementptr inbounds i16, ptr %.01314, i64 %11
  %22 = add nsw i32 %.015, %6
  %23 = icmp slt i32 %22, %1
  br i1 %23, label %12, label %._crit_edge, !llvm.loop !260

._crit_edge:                                      ; preds = %12, %7
  ret void
}